target datalayout = "e-m:e-p270:32:32-p271:32:32-p272:64:64-i64:64-i128:128-f80:128-n8:16:32:64-S128"
target triple = "x86_64-unknown-linux-gnu"

%"class.QuantLib::FdmLinearOp" = type { ptr }
%"class.std::unique_ptr" = type { %"struct.std::__uniq_ptr_data" }
%"struct.std::__uniq_ptr_data" = type { %"class.std::__uniq_ptr_impl" }
%"class.std::__uniq_ptr_impl" = type { %"class.std::tuple" }
%"class.std::tuple" = type { %"struct.std::_Tuple_impl" }
%"struct.std::_Tuple_impl" = type { %"struct.std::_Head_base.1" }
%"struct.std::_Head_base.1" = type { ptr }
%"class.boost::detail::shared_count" = type { ptr }
%"class.QuantLib::Array" = type { %"class.std::unique_ptr", i64 }
%"class.QuantLib::FdmSquareRootFwdOp" = type { %"class.QuantLib::FdmLinearOpComposite", i64, double, double, double, i32, %"class.boost::shared_ptr", %"class.QuantLib::Array" }
%"class.QuantLib::FdmLinearOpComposite" = type { %"class.QuantLib::FdmLinearOp" }
%"class.boost::shared_ptr" = type { ptr, %"class.boost::detail::shared_count" }

; Function Attrs: mustprogress uwtable
define noundef double @_ZNK8QuantLib18FdmSquareRootFwdOp2muEm(ptr noundef nonnull align 8 dereferenceable(80) %this, i64 noundef %i) #4 align 2 {
entry:
  %this.addr = alloca ptr, align 8
  %i.addr = alloca i64, align 8
  store ptr %this, ptr %this.addr, align 8, !tbaa !3
  store i64 %i, ptr %i.addr, align 8, !tbaa !9
  %this1 = load ptr, ptr %this.addr, align 8
  %kappa_ = getelementptr inbounds nuw %"class.QuantLib::FdmSquareRootFwdOp", ptr %this1, i32 0, i32 2
  %0 = load double, ptr %kappa_, align 8, !tbaa !28
  %1 = load i64, ptr %i.addr, align 8, !tbaa !9
  %call = call noundef double @_ZNK8QuantLib18FdmSquareRootFwdOp1vEm(ptr noundef nonnull align 8 dereferenceable(80) %this1, i64 noundef %1)
  %theta_ = getelementptr inbounds nuw %"class.QuantLib::FdmSquareRootFwdOp", ptr %this1, i32 0, i32 3
  %2 = load double, ptr %theta_, align 8, !tbaa !29
  %sub = fsub double %call, %2
  %sigma_ = getelementptr inbounds nuw %"class.QuantLib::FdmSquareRootFwdOp", ptr %this1, i32 0, i32 4
  %3 = load double, ptr %sigma_, align 8, !tbaa !30
  %sigma_2 = getelementptr inbounds nuw %"class.QuantLib::FdmSquareRootFwdOp", ptr %this1, i32 0, i32 4
  %4 = load double, ptr %sigma_2, align 8, !tbaa !30
  %mul3 = fmul double %3, %4
  %5 = call double @llvm.fmuladd.f64(double %0, double %sub, double %mul3)
  ret double %5
}

; Function Attrs: mustprogress uwtable
define noundef double @_ZNK8QuantLib18FdmSquareRootFwdOp5zetamEm(ptr noundef nonnull align 8 dereferenceable(80) %this, i64 noundef %i) #4 align 2 {
entry:
  %this.addr = alloca ptr, align 8
  %i.addr = alloca i64, align 8
  store ptr %this, ptr %this.addr, align 8, !tbaa !3
  store i64 %i, ptr %i.addr, align 8, !tbaa !9
  %this1 = load ptr, ptr %this.addr, align 8
  %0 = load i64, ptr %i.addr, align 8, !tbaa !9
  %sub = sub i64 %0, 1
  %call = call noundef double @_ZNK8QuantLib18FdmSquareRootFwdOp1hEm(ptr noundef nonnull align 8 dereferenceable(80) %this1, i64 noundef %sub)
  %1 = load i64, ptr %i.addr, align 8, !tbaa !9
  %sub2 = sub i64 %1, 1
  %call3 = call noundef double @_ZNK8QuantLib18FdmSquareRootFwdOp1hEm(ptr noundef nonnull align 8 dereferenceable(80) %this1, i64 noundef %sub2)
  %2 = load i64, ptr %i.addr, align 8, !tbaa !9
  %call4 = call noundef double @_ZNK8QuantLib18FdmSquareRootFwdOp1hEm(ptr noundef nonnull align 8 dereferenceable(80) %this1, i64 noundef %2)
  %add = fadd double %call3, %call4
  %mul = fmul double %call, %add
  ret double %mul
}

; Function Attrs: mustprogress uwtable
define noundef double @_ZNK8QuantLib18FdmSquareRootFwdOp1hEm(ptr noundef nonnull align 8 dereferenceable(80) %this, i64 noundef %i) #4 align 2 {
entry:
  %this.addr = alloca ptr, align 8
  %i.addr = alloca i64, align 8
  store ptr %this, ptr %this.addr, align 8, !tbaa !3
  store i64 %i, ptr %i.addr, align 8, !tbaa !9
  %this1 = load ptr, ptr %this.addr, align 8
  %0 = load i64, ptr %i.addr, align 8, !tbaa !9
  %add = add i64 %0, 1
  %call = call noundef double @_ZNK8QuantLib18FdmSquareRootFwdOp1vEm(ptr noundef nonnull align 8 dereferenceable(80) %this1, i64 noundef %add)
  %1 = load i64, ptr %i.addr, align 8, !tbaa !9
  %call2 = call noundef double @_ZNK8QuantLib18FdmSquareRootFwdOp1vEm(ptr noundef nonnull align 8 dereferenceable(80) %this1, i64 noundef %1)
  %sub = fsub double %call, %call2
  ret double %sub
}

; Function Attrs: mustprogress uwtable
define noundef double @_ZNK8QuantLib18FdmSquareRootFwdOp7f0PlainEv(ptr noundef nonnull align 8 dereferenceable(80) %this) #4 align 2 {
entry:
  %this.addr = alloca ptr, align 8
  %n = alloca i64, align 8
  %a = alloca double, align 8
  %alpha = alloca double, align 8
  %nu = alloca double, align 8
  store ptr %this, ptr %this.addr, align 8, !tbaa !3
  %this1 = load ptr, ptr %this.addr, align 8
  call void @llvm.lifetime.start.p0(i64 8, ptr %n) #3
  store i64 1, ptr %n, align 8, !tbaa !9
  call void @llvm.lifetime.start.p0(i64 8, ptr %a) #3
  %call = call noundef double @_ZNK8QuantLib18FdmSquareRootFwdOp1hEm(ptr noundef nonnull align 8 dereferenceable(80) %this1, i64 noundef 0)
  %call2 = call noundef double @_ZNK8QuantLib18FdmSquareRootFwdOp1hEm(ptr noundef nonnull align 8 dereferenceable(80) %this1, i64 noundef 1)
  %0 = call double @llvm.fmuladd.f64(double 2.000000e+00, double %call, double %call2)
  %fneg = fneg double %0
  %call3 = call noundef double @_ZNK8QuantLib18FdmSquareRootFwdOp5zetamEm(ptr noundef nonnull align 8 dereferenceable(80) %this1, i64 noundef 1)
  %div = fdiv double %fneg, %call3
  store double %div, ptr %a, align 8, !tbaa !7
  call void @llvm.lifetime.start.p0(i64 8, ptr %alpha) #3
  %sigma_ = getelementptr inbounds nuw %"class.QuantLib::FdmSquareRootFwdOp", ptr %this1, i32 0, i32 4
  %1 = load double, ptr %sigma_, align 8, !tbaa !30
  %sigma_4 = getelementptr inbounds nuw %"class.QuantLib::FdmSquareRootFwdOp", ptr %this1, i32 0, i32 4
  %2 = load double, ptr %sigma_4, align 8, !tbaa !30
  %mul = fmul double %1, %2
  %call5 = call noundef double @_ZNK8QuantLib18FdmSquareRootFwdOp1vEm(ptr noundef nonnull align 8 dereferenceable(80) %this1, i64 noundef 1)
  %mul6 = fmul double %mul, %call5
  %call7 = call noundef double @_ZNK8QuantLib18FdmSquareRootFwdOp5zetamEm(ptr noundef nonnull align 8 dereferenceable(80) %this1, i64 noundef 1)
  %div8 = fdiv double %mul6, %call7
  %call9 = call noundef double @_ZNK8QuantLib18FdmSquareRootFwdOp2muEm(ptr noundef nonnull align 8 dereferenceable(80) %this1, i64 noundef 1)
  %call10 = call noundef double @_ZNK8QuantLib18FdmSquareRootFwdOp1hEm(ptr noundef nonnull align 8 dereferenceable(80) %this1, i64 noundef 1)
  %mul11 = fmul double %call9, %call10
  %call12 = call noundef double @_ZNK8QuantLib18FdmSquareRootFwdOp5zetamEm(ptr noundef nonnull align 8 dereferenceable(80) %this1, i64 noundef 1)
  %div13 = fdiv double %mul11, %call12
  %sub = fsub double %div8, %div13
  store double %sub, ptr %alpha, align 8, !tbaa !7
  call void @llvm.lifetime.start.p0(i64 8, ptr %nu) #3
  %3 = load double, ptr %a, align 8, !tbaa !7
  %call14 = call noundef double @_ZNK8QuantLib18FdmSquareRootFwdOp1vEm(ptr noundef nonnull align 8 dereferenceable(80) %this1, i64 noundef 0)
  %kappa_ = getelementptr inbounds nuw %"class.QuantLib::FdmSquareRootFwdOp", ptr %this1, i32 0, i32 2
  %4 = load double, ptr %kappa_, align 8, !tbaa !28
  %mul16 = fmul double 2.000000e+00, %4
  %call17 = call noundef double @_ZNK8QuantLib18FdmSquareRootFwdOp1vEm(ptr noundef nonnull align 8 dereferenceable(80) %this1, i64 noundef 0)
  %theta_ = getelementptr inbounds nuw %"class.QuantLib::FdmSquareRootFwdOp", ptr %this1, i32 0, i32 3
  %5 = load double, ptr %theta_, align 8, !tbaa !29
  %sub18 = fsub double %call17, %5
  %sigma_20 = getelementptr inbounds nuw %"class.QuantLib::FdmSquareRootFwdOp", ptr %this1, i32 0, i32 4
  %6 = load double, ptr %sigma_20, align 8, !tbaa !30
  %sigma_21 = getelementptr inbounds nuw %"class.QuantLib::FdmSquareRootFwdOp", ptr %this1, i32 0, i32 4
  %7 = load double, ptr %sigma_21, align 8, !tbaa !30
  %mul22 = fmul double %6, %7
  %8 = call double @llvm.fmuladd.f64(double %mul16, double %sub18, double %mul22)
  %sigma_23 = getelementptr inbounds nuw %"class.QuantLib::FdmSquareRootFwdOp", ptr %this1, i32 0, i32 4
  %9 = load double, ptr %sigma_23, align 8, !tbaa !30
  %sigma_24 = getelementptr inbounds nuw %"class.QuantLib::FdmSquareRootFwdOp", ptr %this1, i32 0, i32 4
  %10 = load double, ptr %sigma_24, align 8, !tbaa !30
  %mul25 = fmul double %9, %10
  %div26 = fdiv double %8, %mul25
  %11 = call double @llvm.fmuladd.f64(double %3, double %call14, double %div26)
  store double %11, ptr %nu, align 8, !tbaa !7
  %12 = load double, ptr %alpha, align 8, !tbaa !7
  %13 = load double, ptr %nu, align 8, !tbaa !7
  %div27 = fdiv double %12, %13
  %call28 = call noundef double @_ZNK8QuantLib18FdmSquareRootFwdOp1vEm(ptr noundef nonnull align 8 dereferenceable(80) %this1, i64 noundef 0)
  %mul29 = fmul double %div27, %call28
  call void @llvm.lifetime.end.p0(i64 8, ptr %nu) #3
  call void @llvm.lifetime.end.p0(i64 8, ptr %alpha) #3
  call void @llvm.lifetime.end.p0(i64 8, ptr %a) #3
  call void @llvm.lifetime.end.p0(i64 8, ptr %n) #3
  ret double %mul29
}