; Function Attrs: mustprogress uwtable
define noundef double @_ZNK8QuantLib18FdmSquareRootFwdOp7f0PlainEv(ptr nocapture noundef nonnull readonly align 8 dereferenceable(80) %this) local_unnamed_addr #3 align 2 personality ptr @__gxx_personality_v0 {
entry:
  %call.i = tail call noundef double @_ZNK8QuantLib18FdmSquareRootFwdOp1vEm(ptr noundef nonnull readonly align 8 dereferenceable(80) %this, i64 noundef 1)
  %transform_.i60 = getelementptr inbounds nuw i8, ptr %this, i64 40
  %0 = load i32, ptr %transform_.i60, align 8, !tbaa !27
  %cmp7.i61 = icmp eq i32 %0, 2
  %v_9.i62 = getelementptr inbounds nuw i8, ptr %this, i64 64
  %1 = load ptr, ptr %v_9.i62, align 8, !tbaa !31
  %2 = load double, ptr %1, align 8, !tbaa !36
  br i1 %cmp7.i61, label %if.then8.i70, label %if.else13.i63

if.then8.i70:                                     ; preds = %entry
  %arrayidx.i10.i71 = getelementptr inbounds nuw i8, ptr %1, i64 8
  %3 = load double, ptr %arrayidx.i10.i71, align 8, !tbaa !36
  %neg.i72 = fneg double %3
  %4 = tail call double @llvm.fmuladd.f64(double %2, double 2.000000e+00, double %neg.i72)
  br label %_ZNK8QuantLib18FdmSquareRootFwdOp1vEm.exit73

if.else13.i63:                                    ; preds = %entry
  %mul.i64 = fmul double %2, 5.000000e-01
  %arrayidx.i13.i65 = getelementptr inbounds nuw i8, ptr %1, i64 8
  %5 = load double, ptr %arrayidx.i13.i65, align 8, !tbaa !36
  %sub23.i66 = fsub double %5, %2
  %6 = tail call double @llvm.fmuladd.f64(double %sub23.i66, double -1.000000e-02, double %2)
  %cmp.i.i67 = fcmp olt double %mul.i64, %6
  %.sroa.speculated.i68 = select i1 %cmp.i.i67, double %6, double %mul.i64
  br label %_ZNK8QuantLib18FdmSquareRootFwdOp1vEm.exit73

_ZNK8QuantLib18FdmSquareRootFwdOp1vEm.exit73:     ; preds = %if.then8.i70, %if.else13.i63
  %retval.0.i69 = phi double [ %4, %if.then8.i70 ], [ %.sroa.speculated.i68, %if.else13.i63 ]
  %call.i1 = tail call noundef double @_ZNK8QuantLib18FdmSquareRootFwdOp1vEm(ptr noundef nonnull readonly align 8 dereferenceable(80) %this, i64 noundef 2)
  %call2.i2 = tail call noundef double @_ZNK8QuantLib18FdmSquareRootFwdOp1vEm(ptr noundef nonnull readonly align 8 dereferenceable(80) %this, i64 noundef 1)
  %call.i.i = tail call noundef double @_ZNK8QuantLib18FdmSquareRootFwdOp1vEm(ptr noundef nonnull readonly align 8 dereferenceable(80) %this, i64 noundef 1)
  %7 = load i32, ptr %transform_.i60, align 8, !tbaa !27
  %cmp7.i89 = icmp eq i32 %7, 2
  %8 = load ptr, ptr %v_9.i62, align 8, !tbaa !31
  %9 = load double, ptr %8, align 8, !tbaa !36
  br i1 %cmp7.i89, label %if.then8.i98, label %if.else13.i91

if.then8.i98:                                     ; preds = %_ZNK8QuantLib18FdmSquareRootFwdOp1vEm.exit73
  %arrayidx.i10.i99 = getelementptr inbounds nuw i8, ptr %8, i64 8
  %10 = load double, ptr %arrayidx.i10.i99, align 8, !tbaa !36
  %neg.i100 = fneg double %10
  %11 = tail call double @llvm.fmuladd.f64(double %9, double 2.000000e+00, double %neg.i100)
  br label %_ZNK8QuantLib18FdmSquareRootFwdOp1vEm.exit101

if.else13.i91:                                    ; preds = %_ZNK8QuantLib18FdmSquareRootFwdOp1vEm.exit73
  %mul.i92 = fmul double %9, 5.000000e-01
  %arrayidx.i13.i93 = getelementptr inbounds nuw i8, ptr %8, i64 8
  %12 = load double, ptr %arrayidx.i13.i93, align 8, !tbaa !36
  %sub23.i94 = fsub double %12, %9
  %13 = tail call double @llvm.fmuladd.f64(double %sub23.i94, double -1.000000e-02, double %9)
  %cmp.i.i95 = fcmp olt double %mul.i92, %13
  %.sroa.speculated.i96 = select i1 %cmp.i.i95, double %13, double %mul.i92
  br label %_ZNK8QuantLib18FdmSquareRootFwdOp1vEm.exit101

_ZNK8QuantLib18FdmSquareRootFwdOp1vEm.exit101:    ; preds = %if.then8.i98, %if.else13.i91
  %retval.0.i97 = phi double [ %11, %if.then8.i98 ], [ %.sroa.speculated.i96, %if.else13.i91 ]
  %call.i3.i = tail call noundef double @_ZNK8QuantLib18FdmSquareRootFwdOp1vEm(ptr noundef nonnull readonly align 8 dereferenceable(80) %this, i64 noundef 1)
  %14 = load i32, ptr %transform_.i60, align 8, !tbaa !27
  %cmp7.i75 = icmp eq i32 %14, 2
  %15 = load ptr, ptr %v_9.i62, align 8, !tbaa !31
  %16 = load double, ptr %15, align 8, !tbaa !36
  br i1 %cmp7.i75, label %if.then8.i84, label %if.else13.i77

if.then8.i84:                                     ; preds = %_ZNK8QuantLib18FdmSquareRootFwdOp1vEm.exit101
  %arrayidx.i10.i85 = getelementptr inbounds nuw i8, ptr %15, i64 8
  %17 = load double, ptr %arrayidx.i10.i85, align 8, !tbaa !36
  %neg.i86 = fneg double %17
  %18 = tail call double @llvm.fmuladd.f64(double %16, double 2.000000e+00, double %neg.i86)
  br label %_ZNK8QuantLib18FdmSquareRootFwdOp1vEm.exit87

if.else13.i77:                                    ; preds = %_ZNK8QuantLib18FdmSquareRootFwdOp1vEm.exit101
  %mul.i78 = fmul double %16, 5.000000e-01
  %arrayidx.i13.i79 = getelementptr inbounds nuw i8, ptr %15, i64 8
  %19 = load double, ptr %arrayidx.i13.i79, align 8, !tbaa !36
  %sub23.i80 = fsub double %19, %16
  %20 = tail call double @llvm.fmuladd.f64(double %sub23.i80, double -1.000000e-02, double %16)
  %cmp.i.i81 = fcmp olt double %mul.i78, %20
  %.sroa.speculated.i82 = select i1 %cmp.i.i81, double %20, double %mul.i78
  br label %_ZNK8QuantLib18FdmSquareRootFwdOp1vEm.exit87

_ZNK8QuantLib18FdmSquareRootFwdOp1vEm.exit87:     ; preds = %if.then8.i84, %if.else13.i77
  %retval.0.i83 = phi double [ %18, %if.then8.i84 ], [ %.sroa.speculated.i82, %if.else13.i77 ]
  %call.i6.i = tail call noundef double @_ZNK8QuantLib18FdmSquareRootFwdOp1vEm(ptr noundef nonnull readonly align 8 dereferenceable(80) %this, i64 noundef 2)
  %call2.i7.i = tail call noundef double @_ZNK8QuantLib18FdmSquareRootFwdOp1vEm(ptr noundef nonnull readonly align 8 dereferenceable(80) %this, i64 noundef 1)
  %sigma_ = getelementptr inbounds nuw i8, ptr %this, i64 32
  %21 = load double, ptr %sigma_, align 8, !tbaa !26
  %call5 = tail call noundef double @_ZNK8QuantLib18FdmSquareRootFwdOp1vEm(ptr noundef nonnull align 8 dereferenceable(80) %this, i64 noundef 1)
  %call.i.i4 = tail call noundef double @_ZNK8QuantLib18FdmSquareRootFwdOp1vEm(ptr noundef nonnull readonly align 8 dereferenceable(80) %this, i64 noundef 1)
  %22 = load i32, ptr %transform_.i60, align 8, !tbaa !27
  %cmp7.i117 = icmp eq i32 %22, 2
  %23 = load ptr, ptr %v_9.i62, align 8, !tbaa !31
  %24 = load double, ptr %23, align 8, !tbaa !36
  br i1 %cmp7.i117, label %if.then8.i126, label %if.else13.i119

if.then8.i126:                                    ; preds = %_ZNK8QuantLib18FdmSquareRootFwdOp1vEm.exit87
  %arrayidx.i10.i127 = getelementptr inbounds nuw i8, ptr %23, i64 8
  %25 = load double, ptr %arrayidx.i10.i127, align 8, !tbaa !36
  %neg.i128 = fneg double %25
  %26 = tail call double @llvm.fmuladd.f64(double %24, double 2.000000e+00, double %neg.i128)
  br label %_ZNK8QuantLib18FdmSquareRootFwdOp1vEm.exit129

if.else13.i119:                                   ; preds = %_ZNK8QuantLib18FdmSquareRootFwdOp1vEm.exit87
  %mul.i120 = fmul double %24, 5.000000e-01
  %arrayidx.i13.i121 = getelementptr inbounds nuw i8, ptr %23, i64 8
  %27 = load double, ptr %arrayidx.i13.i121, align 8, !tbaa !36
  %sub23.i122 = fsub double %27, %24
  %28 = tail call double @llvm.fmuladd.f64(double %sub23.i122, double -1.000000e-02, double %24)
  %cmp.i.i123 = fcmp olt double %mul.i120, %28
  %.sroa.speculated.i124 = select i1 %cmp.i.i123, double %28, double %mul.i120
  br label %_ZNK8QuantLib18FdmSquareRootFwdOp1vEm.exit129

_ZNK8QuantLib18FdmSquareRootFwdOp1vEm.exit129:    ; preds = %if.then8.i126, %if.else13.i119
  %retval.0.i125 = phi double [ %26, %if.then8.i126 ], [ %.sroa.speculated.i124, %if.else13.i119 ]
  %call.i3.i7 = tail call noundef double @_ZNK8QuantLib18FdmSquareRootFwdOp1vEm(ptr noundef nonnull readonly align 8 dereferenceable(80) %this, i64 noundef 1)
  %29 = load i32, ptr %transform_.i60, align 8, !tbaa !27
  %cmp7.i103 = icmp eq i32 %29, 2
  %30 = load ptr, ptr %v_9.i62, align 8, !tbaa !31
  %31 = load double, ptr %30, align 8, !tbaa !36
  br i1 %cmp7.i103, label %if.then8.i112, label %if.else13.i105

if.then8.i112:                                    ; preds = %_ZNK8QuantLib18FdmSquareRootFwdOp1vEm.exit129
  %arrayidx.i10.i113 = getelementptr inbounds nuw i8, ptr %30, i64 8
  %32 = load double, ptr %arrayidx.i10.i113, align 8, !tbaa !36
  %neg.i114 = fneg double %32
  %33 = tail call double @llvm.fmuladd.f64(double %31, double 2.000000e+00, double %neg.i114)
  br label %_ZNK8QuantLib18FdmSquareRootFwdOp1vEm.exit115

if.else13.i105:                                   ; preds = %_ZNK8QuantLib18FdmSquareRootFwdOp1vEm.exit129
  %mul.i106 = fmul double %31, 5.000000e-01
  %arrayidx.i13.i107 = getelementptr inbounds nuw i8, ptr %30, i64 8
  %34 = load double, ptr %arrayidx.i13.i107, align 8, !tbaa !36
  %sub23.i108 = fsub double %34, %31
  %35 = tail call double @llvm.fmuladd.f64(double %sub23.i108, double -1.000000e-02, double %31)
  %cmp.i.i109 = fcmp olt double %mul.i106, %35
  %.sroa.speculated.i110 = select i1 %cmp.i.i109, double %35, double %mul.i106
  br label %_ZNK8QuantLib18FdmSquareRootFwdOp1vEm.exit115

_ZNK8QuantLib18FdmSquareRootFwdOp1vEm.exit115:    ; preds = %if.then8.i112, %if.else13.i105
  %retval.0.i111 = phi double [ %33, %if.then8.i112 ], [ %.sroa.speculated.i110, %if.else13.i105 ]
  %call.i6.i10 = tail call noundef double @_ZNK8QuantLib18FdmSquareRootFwdOp1vEm(ptr noundef nonnull readonly align 8 dereferenceable(80) %this, i64 noundef 2)
  %call2.i7.i11 = tail call noundef double @_ZNK8QuantLib18FdmSquareRootFwdOp1vEm(ptr noundef nonnull readonly align 8 dereferenceable(80) %this, i64 noundef 1)
  %kappa_.i = getelementptr inbounds nuw i8, ptr %this, i64 16
  %36 = load double, ptr %kappa_.i, align 8, !tbaa !24
  %call.i15 = tail call noundef double @_ZNK8QuantLib18FdmSquareRootFwdOp1vEm(ptr noundef nonnull readonly align 8 dereferenceable(80) %this, i64 noundef 1)
  %theta_.i = getelementptr inbounds nuw i8, ptr %this, i64 24
  %37 = load double, ptr %theta_.i, align 8, !tbaa !25
  %38 = load double, ptr %sigma_, align 8, !tbaa !26
  %call.i17 = tail call noundef double @_ZNK8QuantLib18FdmSquareRootFwdOp1vEm(ptr noundef nonnull readonly align 8 dereferenceable(80) %this, i64 noundef 2)
  %call2.i18 = tail call noundef double @_ZNK8QuantLib18FdmSquareRootFwdOp1vEm(ptr noundef nonnull readonly align 8 dereferenceable(80) %this, i64 noundef 1)
  %call.i.i20 = tail call noundef double @_ZNK8QuantLib18FdmSquareRootFwdOp1vEm(ptr noundef nonnull readonly align 8 dereferenceable(80) %this, i64 noundef 1)
  %39 = load i32, ptr %transform_.i60, align 8, !tbaa !27
  %cmp7.i145 = icmp eq i32 %39, 2
  %40 = load ptr, ptr %v_9.i62, align 8, !tbaa !31
  %41 = load double, ptr %40, align 8, !tbaa !36
  br i1 %cmp7.i145, label %if.then8.i154, label %if.else13.i147

if.then8.i154:                                    ; preds = %_ZNK8QuantLib18FdmSquareRootFwdOp1vEm.exit115
  %arrayidx.i10.i155 = getelementptr inbounds nuw i8, ptr %40, i64 8
  %42 = load double, ptr %arrayidx.i10.i155, align 8, !tbaa !36
  %neg.i156 = fneg double %42
  %43 = tail call double @llvm.fmuladd.f64(double %41, double 2.000000e+00, double %neg.i156)
  br label %_ZNK8QuantLib18FdmSquareRootFwdOp1vEm.exit157

if.else13.i147:                                   ; preds = %_ZNK8QuantLib18FdmSquareRootFwdOp1vEm.exit115
  %mul.i148 = fmul double %41, 5.000000e-01
  %arrayidx.i13.i149 = getelementptr inbounds nuw i8, ptr %40, i64 8
  %44 = load double, ptr %arrayidx.i13.i149, align 8, !tbaa !36
  %sub23.i150 = fsub double %44, %41
  %45 = tail call double @llvm.fmuladd.f64(double %sub23.i150, double -1.000000e-02, double %41)
  %cmp.i.i151 = fcmp olt double %mul.i148, %45
  %.sroa.speculated.i152 = select i1 %cmp.i.i151, double %45, double %mul.i148
  br label %_ZNK8QuantLib18FdmSquareRootFwdOp1vEm.exit157

_ZNK8QuantLib18FdmSquareRootFwdOp1vEm.exit157:    ; preds = %if.then8.i154, %if.else13.i147
  %retval.0.i153 = phi double [ %43, %if.then8.i154 ], [ %.sroa.speculated.i152, %if.else13.i147 ]
  %call.i3.i23 = tail call noundef double @_ZNK8QuantLib18FdmSquareRootFwdOp1vEm(ptr noundef nonnull readonly align 8 dereferenceable(80) %this, i64 noundef 1)
  %46 = load i32, ptr %transform_.i60, align 8, !tbaa !27
  %cmp7.i131 = icmp eq i32 %46, 2
  %47 = load ptr, ptr %v_9.i62, align 8, !tbaa !31
  %48 = load double, ptr %47, align 8, !tbaa !36
  br i1 %cmp7.i131, label %if.then8.i140, label %if.else13.i133

if.then8.i140:                                    ; preds = %_ZNK8QuantLib18FdmSquareRootFwdOp1vEm.exit157
  %arrayidx.i10.i141 = getelementptr inbounds nuw i8, ptr %47, i64 8
  %49 = load double, ptr %arrayidx.i10.i141, align 8, !tbaa !36
  %neg.i142 = fneg double %49
  %50 = tail call double @llvm.fmuladd.f64(double %48, double 2.000000e+00, double %neg.i142)
  br label %_ZNK8QuantLib18FdmSquareRootFwdOp1vEm.exit143

if.else13.i133:                                   ; preds = %_ZNK8QuantLib18FdmSquareRootFwdOp1vEm.exit157
  %mul.i134 = fmul double %48, 5.000000e-01
  %arrayidx.i13.i135 = getelementptr inbounds nuw i8, ptr %47, i64 8
  %51 = load double, ptr %arrayidx.i13.i135, align 8, !tbaa !36
  %sub23.i136 = fsub double %51, %48
  %52 = tail call double @llvm.fmuladd.f64(double %sub23.i136, double -1.000000e-02, double %48)
  %cmp.i.i137 = fcmp olt double %mul.i134, %52
  %.sroa.speculated.i138 = select i1 %cmp.i.i137, double %52, double %mul.i134
  br label %_ZNK8QuantLib18FdmSquareRootFwdOp1vEm.exit143

_ZNK8QuantLib18FdmSquareRootFwdOp1vEm.exit143:    ; preds = %if.then8.i140, %if.else13.i133
  %retval.0.i139 = phi double [ %50, %if.then8.i140 ], [ %.sroa.speculated.i138, %if.else13.i133 ]
  %call.i6.i26 = tail call noundef double @_ZNK8QuantLib18FdmSquareRootFwdOp1vEm(ptr noundef nonnull readonly align 8 dereferenceable(80) %this, i64 noundef 2)
  %call2.i7.i27 = tail call noundef double @_ZNK8QuantLib18FdmSquareRootFwdOp1vEm(ptr noundef nonnull readonly align 8 dereferenceable(80) %this, i64 noundef 1)
  %53 = load i32, ptr %transform_.i60, align 8, !tbaa !27
  %cmp7.i = icmp eq i32 %53, 2
  %54 = load ptr, ptr %v_9.i62, align 8, !tbaa !31
  %55 = load double, ptr %54, align 8, !tbaa !36
  br i1 %cmp7.i, label %if.then8.i56, label %if.else13.i49

if.then8.i56:                                     ; preds = %_ZNK8QuantLib18FdmSquareRootFwdOp1vEm.exit143
  %arrayidx.i10.i = getelementptr inbounds nuw i8, ptr %54, i64 8
  %56 = load double, ptr %arrayidx.i10.i, align 8, !tbaa !36
  %neg.i = fneg double %56
  %57 = tail call double @llvm.fmuladd.f64(double %55, double 2.000000e+00, double %neg.i)
  %neg.i58 = fneg double %56
  %58 = tail call double @llvm.fmuladd.f64(double %55, double 2.000000e+00, double %neg.i58)
  br label %_ZNK8QuantLib18FdmSquareRootFwdOp1vEm.exit59

if.else13.i49:                                    ; preds = %_ZNK8QuantLib18FdmSquareRootFwdOp1vEm.exit143
  %mul.i31 = fmul double %55, 5.000000e-01
  %arrayidx.i13.i = getelementptr inbounds nuw i8, ptr %54, i64 8
  %59 = load double, ptr %arrayidx.i13.i, align 8, !tbaa !36
  %sub23.i = fsub double %59, %55
  %60 = tail call double @llvm.fmuladd.f64(double %sub23.i, double -1.000000e-02, double %55)
  %cmp.i.i = fcmp olt double %mul.i31, %60
  %.sroa.speculated.i = select i1 %cmp.i.i, double %60, double %mul.i31
  %mul.i50 = fmul double %55, 5.000000e-01
  %sub23.i52 = fsub double %59, %55
  %61 = tail call double @llvm.fmuladd.f64(double %sub23.i52, double -1.000000e-02, double %55)
  %cmp.i.i53 = fcmp olt double %mul.i50, %61
  %.sroa.speculated.i54 = select i1 %cmp.i.i53, double %61, double %mul.i50
  br label %_ZNK8QuantLib18FdmSquareRootFwdOp1vEm.exit59

_ZNK8QuantLib18FdmSquareRootFwdOp1vEm.exit59:     ; preds = %if.then8.i56, %if.else13.i49
  %retval.0.i160166 = phi double [ %57, %if.then8.i56 ], [ %.sroa.speculated.i, %if.else13.i49 ]
  %retval.0.i55 = phi double [ %58, %if.then8.i56 ], [ %.sroa.speculated.i54, %if.else13.i49 ]
  %mul16162.in168 = load double, ptr %kappa_.i, align 8, !tbaa !24
  %62 = load double, ptr %theta_.i, align 8, !tbaa !25
  %63 = load double, ptr %sigma_, align 8, !tbaa !26
  %mul = fmul double %21, %21
  %mul6 = fmul double %mul, %call5
  %sub.i.i6 = fsub double %call.i.i4, %retval.0.i125
  %sub.i5.i9 = fsub double %call.i3.i7, %retval.0.i111
  %sub.i8.i12 = fsub double %call.i6.i10, %call2.i7.i11
  %add.i13 = fadd double %sub.i5.i9, %sub.i8.i12
  %mul.i14 = fmul double %sub.i.i6, %add.i13
  %div8 = fdiv double %mul6, %mul.i14
  %sub.i16 = fsub double %call.i15, %37
  %mul3.i = fmul double %38, %38
  %64 = tail call noundef double @llvm.fmuladd.f64(double %36, double %sub.i16, double %mul3.i)
  %sub.i19 = fsub double %call.i17, %call2.i18
  %mul11 = fmul double %64, %sub.i19
  %sub.i.i22 = fsub double %call.i.i20, %retval.0.i153
  %sub.i5.i25 = fsub double %call.i3.i23, %retval.0.i139
  %sub.i8.i28 = fsub double %call.i6.i26, %call2.i7.i27
  %add.i29 = fadd double %sub.i5.i25, %sub.i8.i28
  %mul.i30 = fmul double %sub.i.i22, %add.i29
  %div13 = fdiv double %mul11, %mul.i30
  %sub = fsub double %div8, %div13
  %sub.i = fsub double %call.i, %retval.0.i69
  %sub.i3 = fsub double %call.i1, %call2.i2
  %65 = tail call double @llvm.fmuladd.f64(double %sub.i, double 2.000000e+00, double %sub.i3)
  %fneg = fneg double %65
  %sub.i.i = fsub double %call.i.i, %retval.0.i97
  %sub.i5.i = fsub double %call.i3.i, %retval.0.i83
  %sub.i8.i = fsub double %call.i6.i, %call2.i7.i
  %add.i = fadd double %sub.i5.i, %sub.i8.i
  %mul.i = fmul double %sub.i.i, %add.i
  %div = fdiv double %fneg, %mul.i
  %mul16162 = fmul double %mul16162.in168, 2.000000e+00
  %sub18 = fsub double %retval.0.i160166, %62
  %mul22 = fmul double %63, %63
  %66 = tail call double @llvm.fmuladd.f64(double %mul16162, double %sub18, double %mul22)
  %div26 = fdiv double %66, %mul22
  %67 = tail call double @llvm.fmuladd.f64(double %div, double %retval.0.i160166, double %div26)
  %div27 = fdiv double %sub, %67
  %mul29 = fmul double %div27, %retval.0.i55
  ret double %mul29
}